target datalayout = "e-m:e-p270:32:32-p271:32:32-p272:64:64-i64:64-i128:128-f80:128-n8:16:32:64-S128"
target triple = "x86_64-pc-linux-gnu"

%"class.base::File" = type <{ %"class.base::ScopedGeneric", [4 x i8], %"class.base::FilePath", [4 x i8], i32, i8, i8, [6 x i8] }>
%"class.base::ScopedGeneric" = type { %"struct.base::ScopedGeneric<int, base::internal::ScopedFDCloseTraits>::Data" }
%"struct.base::ScopedGeneric<int, base::internal::ScopedFDCloseTraits>::Data" = type { i32 }
%"class.base::FilePath" = type { %"class.std::__cxx11::basic_string" }
%"class.std::__cxx11::basic_string" = type { %"struct.std::__cxx11::basic_string<char>::_Alloc_hider", i64, %union.anon }
%"struct.std::__cxx11::basic_string<char>::_Alloc_hider" = type { ptr }
%union.anon = type { i64, [8 x i8] }
%"class.base::FileTracing::ScopedTrace" = type { ptr, ptr }

@.str.17 = private unnamed_addr constant [12 x i8] c"File::Flush\00", align 1

; Function Attrs: mustprogress nounwind uwtable
define linkonce_odr noundef nonnull align 4 dereferenceable(4) ptr @_ZNK4base13ScopedGenericIiNS_8internal19ScopedFDCloseTraitsEE3getEv(ptr noundef nonnull align 4 dereferenceable(4) %0) #4 comdat align 2 {
  %2 = alloca ptr, align 8
  store ptr %0, ptr %2, align 8, !tbaa !36
  %3 = load ptr, ptr %2, align 8
  %4 = getelementptr inbounds nuw %"class.base::ScopedGeneric", ptr %3, i32 0, i32 0
  %5 = getelementptr inbounds nuw %"struct.base::ScopedGeneric<int, base::internal::ScopedFDCloseTraits>::Data", ptr %4, i32 0, i32 0
  ret ptr %5
}

; Function Attrs: mustprogress nounwind uwtable
define linkonce_odr void @_ZN4base18ThreadRestrictions15AssertIOAllowedEv() #4 comdat align 2 {
  ret void
}

; Function Attrs: mustprogress uwtable
define noundef zeroext i1 @_ZN4base4File5FlushEv(ptr noundef nonnull align 8 dereferenceable(50) %0) #0 align 2 personality ptr @__gxx_personality_v0 {
  %2 = alloca ptr, align 8
  %3 = alloca %"class.base::FileTracing::ScopedTrace", align 8
  %4 = alloca ptr, align 8
  %5 = alloca i32, align 4
  %6 = alloca i32, align 4
  %7 = alloca i32, align 4
  store ptr %0, ptr %2, align 8, !tbaa !34
  %8 = load ptr, ptr %2, align 8
  call void @_ZN4base18ThreadRestrictions15AssertIOAllowedEv()
  call void @llvm.lifetime.start.p0(i64 16, ptr %3) #14
  call void @_ZN4base11FileTracing11ScopedTraceC1Ev(ptr noundef nonnull align 8 dereferenceable(16) %3)
  %9 = invoke noundef zeroext i1 @_ZN4base11FileTracing17IsCategoryEnabledEv()
          to label %10 unwind label %13

10:                                               ; preds = %1
  br i1 %9, label %11, label %17

11:                                               ; preds = %10
  invoke void @_ZN4base11FileTracing11ScopedTrace10InitializeEPKcPKNS_4FileEl(ptr noundef nonnull align 8 dereferenceable(16) %3, ptr noundef @.str.17, ptr noundef %8, i64 noundef 0)
          to label %12 unwind label %13

12:                                               ; preds = %11
  br label %17

13:                                               ; preds = %11, %1
  %14 = landingpad { ptr, i32 }
          cleanup
  %15 = extractvalue { ptr, i32 } %14, 0
  store ptr %15, ptr %4, align 8
  %16 = extractvalue { ptr, i32 } %14, 1
  store i32 %16, ptr %5, align 4
  br label %43

17:                                               ; preds = %12, %10
  call void @llvm.lifetime.start.p0(i64 4, ptr %6) #14
  br label %18

18:                                               ; preds = %32, %17
  %19 = getelementptr inbounds nuw %"class.base::File", ptr %8, i32 0, i32 0
  %20 = invoke noundef nonnull align 4 dereferenceable(4) ptr @_ZNK4base13ScopedGenericIiNS_8internal19ScopedFDCloseTraitsEE3getEv(ptr noundef nonnull align 4 dereferenceable(4) %19)
          to label %21 unwind label %39

21:                                               ; preds = %18
  %22 = load i32, ptr %20, align 4, !tbaa !41
  %23 = invoke i32 @fdatasync(i32 noundef %22)
          to label %24 unwind label %39

24:                                               ; preds = %21
  store i32 %23, ptr %6, align 4, !tbaa !41
  br label %25

25:                                               ; preds = %24
  %26 = load i32, ptr %6, align 4, !tbaa !41
  %27 = icmp eq i32 %26, -1
  br i1 %27, label %28, label %32

28:                                               ; preds = %25
  %29 = call ptr @__errno_location() #16
  %30 = load i32, ptr %29, align 4, !tbaa !41
  %31 = icmp eq i32 %30, 4
  br label %32

32:                                               ; preds = %28, %25
  %33 = phi i1 [ false, %25 ], [ %31, %28 ]
  br i1 %33, label %18, label %34, !llvm.loop !100

34:                                               ; preds = %32
  %35 = load i32, ptr %6, align 4, !tbaa !41
  store i32 %35, ptr %7, align 4, !tbaa !41
  call void @llvm.lifetime.end.p0(i64 4, ptr %6) #14
  %36 = load i32, ptr %7, align 4, !tbaa !41
  %37 = icmp ne i32 %36, 0
  %38 = xor i1 %37, true
  call void @_ZN4base11FileTracing11ScopedTraceD1Ev(ptr noundef nonnull align 8 dereferenceable(16) %3) #14
  call void @llvm.lifetime.end.p0(i64 16, ptr %3) #14
  ret i1 %38

39:                                               ; preds = %21, %18
  %40 = landingpad { ptr, i32 }
          cleanup
  %41 = extractvalue { ptr, i32 } %40, 0
  store ptr %41, ptr %4, align 8
  %42 = extractvalue { ptr, i32 } %40, 1
  store i32 %42, ptr %5, align 4
  call void @llvm.lifetime.end.p0(i64 4, ptr %6) #14
  br label %43

43:                                               ; preds = %39, %13
  call void @_ZN4base11FileTracing11ScopedTraceD1Ev(ptr noundef nonnull align 8 dereferenceable(16) %3) #14
  call void @llvm.lifetime.end.p0(i64 16, ptr %3) #14
  br label %44

44:                                               ; preds = %43
  %45 = load ptr, ptr %4, align 8
  %46 = load i32, ptr %5, align 4
  %47 = insertvalue { ptr, i32 } poison, ptr %45, 0
  %48 = insertvalue { ptr, i32 } %47, i32 %46, 1
  resume { ptr, i32 } %48
}