; Function Attrs: mustprogress uwtable
define noundef zeroext i1 @_ZN4base4File5FlushEv(ptr noundef nonnull align 8 dereferenceable(50) %0) local_unnamed_addr #0 align 2 personality ptr @__gxx_personality_v0 {
  %2 = alloca %"class.base::FileTracing::ScopedTrace", align 8
  call void @llvm.lifetime.start.p0(i64 16, ptr nonnull %2) #14
  call void @_ZN4base11FileTracing11ScopedTraceC1Ev(ptr noundef nonnull align 8 dereferenceable(16) %2)
  %3 = invoke noundef zeroext i1 @_ZN4base11FileTracing17IsCategoryEnabledEv()
          to label %4 unwind label %6

4:                                                ; preds = %1
  br i1 %3, label %5, label %.preheader

.preheader:                                       ; preds = %5, %4
  br label %8

5:                                                ; preds = %4
  invoke void @_ZN4base11FileTracing11ScopedTrace10InitializeEPKcPKNS_4FileEl(ptr noundef nonnull align 8 dereferenceable(16) %2, ptr noundef nonnull @.str.17, ptr noundef nonnull %0, i64 noundef 0)
          to label %.preheader unwind label %6

6:                                                ; preds = %5, %1
  %7 = landingpad { ptr, i32 }
          cleanup
  br label %19

8:                                                ; preds = %.preheader, %13
  %9 = load i32, ptr %0, align 8, !tbaa !27
  %10 = invoke i32 @fdatasync(i32 noundef %9)
          to label %11 unwind label %17

11:                                               ; preds = %8
  %12 = icmp eq i32 %10, -1
  br i1 %12, label %13, label %.critedge

13:                                               ; preds = %11
  %14 = tail call ptr @__errno_location() #15
  %15 = load i32, ptr %14, align 4, !tbaa !27
  %16 = icmp eq i32 %15, 4
  br i1 %16, label %8, label %.critedge, !llvm.loop !70

.critedge:                                        ; preds = %11, %13
  %.not = icmp eq i32 %10, 0
  call void @_ZN4base11FileTracing11ScopedTraceD1Ev(ptr noundef nonnull align 8 dereferenceable(16) %2) #14
  call void @llvm.lifetime.end.p0(i64 16, ptr nonnull %2) #14
  ret i1 %.not

17:                                               ; preds = %8
  %18 = landingpad { ptr, i32 }
          cleanup
  br label %19

19:                                               ; preds = %17, %6
  %.pn = phi { ptr, i32 } [ %18, %17 ], [ %7, %6 ]
  call void @_ZN4base11FileTracing11ScopedTraceD1Ev(ptr noundef nonnull align 8 dereferenceable(16) %2) #14
  call void @llvm.lifetime.end.p0(i64 16, ptr nonnull %2) #14
  resume { ptr, i32 } %.pn
}